; Function Attrs: mustprogress uwtable
define void @_ZNK7rocksdb10FileSystem24OptimizeForManifestWriteERKNS_11FileOptionsE(ptr dead_on_unwind noalias writable sret(%"struct.rocksdb::FileOptions") align 8 initializes((0, 65), (72, 128)) %0, ptr nonnull readnone align 8 captures(none) %1, ptr noundef nonnull align 8 dereferenceable(138) %2) unnamed_addr #7 align 2 personality ptr @__gxx_personality_v0 {
  %4 = alloca %"struct.std::__detail::_AllocNode", align 8
  tail call void @llvm.memcpy.p0.p0.i64(ptr noundef nonnull align 8 dereferenceable(138) %0, ptr noundef nonnull align 8 dereferenceable(138) %2, i64 48, i1 false), !tbaa.struct !134
  %5 = getelementptr inbounds nuw i8, ptr %0, i64 48
  %6 = getelementptr inbounds nuw i8, ptr %2, i64 48
  tail call void @llvm.memcpy.p0.p0.i64(ptr noundef nonnull align 8 dereferenceable(84) %5, ptr noundef nonnull align 8 dereferenceable(84) %6, i64 17, i1 false)
  %7 = getelementptr inbounds nuw i8, ptr %0, i64 72
  %8 = getelementptr inbounds nuw i8, ptr %2, i64 72
  store ptr null, ptr %7, align 8, !tbaa !49
  %9 = getelementptr inbounds nuw i8, ptr %0, i64 80
  %10 = getelementptr inbounds nuw i8, ptr %2, i64 80
  %11 = load i64, ptr %10, align 8, !tbaa !57
  store i64 %11, ptr %9, align 8, !tbaa !57
  %12 = getelementptr inbounds nuw i8, ptr %0, i64 88
  store ptr null, ptr %12, align 8, !tbaa !104
  %13 = getelementptr inbounds nuw i8, ptr %0, i64 96
  %14 = getelementptr inbounds nuw i8, ptr %2, i64 96
  %15 = load i64, ptr %14, align 8, !tbaa !95
  store i64 %15, ptr %13, align 8, !tbaa !95
  %16 = getelementptr inbounds nuw i8, ptr %0, i64 104
  %17 = getelementptr inbounds nuw i8, ptr %2, i64 104
  tail call void @llvm.memcpy.p0.p0.i64(ptr noundef nonnull align 8 dereferenceable(16) %16, ptr noundef nonnull align 8 dereferenceable(16) %17, i64 16, i1 false), !tbaa.struct !137
  %18 = getelementptr inbounds nuw i8, ptr %0, i64 120
  store ptr null, ptr %18, align 8, !tbaa !139
  call void @llvm.lifetime.start.p0(i64 8, ptr nonnull %4) #33
  store ptr %7, ptr %4, align 8, !tbaa !140
  call void @_ZNSt10_HashtableINSt7__cxx1112basic_stringIcSt11char_traitsIcESaIcEEESt4pairIKS5_S5_ESaIS8_ENSt8__detail10_Select1stESt8equal_toIS5_ESt4hashIS5_ENSA_18_Mod_range_hashingENSA_20_Default_ranged_hashENSA_20_Prime_rehash_policyENSA_17_Hashtable_traitsILb1ELb0ELb1EEEE9_M_assignIRKSL_NSA_10_AllocNodeISaINSA_10_Hash_nodeIS8_Lb1EEEEEEEEvOT_RKT0_(ptr noundef nonnull align 8 dereferenceable(56) %7, ptr noundef nonnull align 8 dereferenceable(56) %8, ptr noundef nonnull align 8 dereferenceable(8) %4)
  call void @llvm.lifetime.end.p0(i64 8, ptr nonnull %4) #33
  %19 = getelementptr inbounds nuw i8, ptr %0, i64 128
  %20 = getelementptr inbounds nuw i8, ptr %2, i64 128
  %21 = load i32, ptr %20, align 8
  store i32 %21, ptr %19, align 8
  %22 = getelementptr inbounds nuw i8, ptr %0, i64 136
  %23 = getelementptr inbounds nuw i8, ptr %2, i64 136
  %24 = load i8, ptr %23, align 8, !tbaa !114
  store i8 %24, ptr %22, align 8, !tbaa !114
  %25 = getelementptr inbounds nuw i8, ptr %0, i64 137
  %26 = getelementptr inbounds nuw i8, ptr %2, i64 137
  %27 = load i8, ptr %26, align 1, !tbaa !120
  store i8 %27, ptr %25, align 1, !tbaa !120
  ret void
}